target datalayout = "e-m:e-p270:32:32-p271:32:32-p272:64:64-i64:64-i128:128-f80:128-n8:16:32:64-S128"
target triple = "x86_64-pc-linux-gnu"

%"class.cv::utils::trace::details::TraceManager" = type { %"class.std::recursive_mutex", %"class.std::recursive_mutex", %"class.cv::TLSDataAccumulator", %"struct.cv::Ptr" }
%"class.std::recursive_mutex" = type { %"class.std::__recursive_mutex_base" }
%"class.std::__recursive_mutex_base" = type { %union.pthread_mutex_t }
%union.pthread_mutex_t = type { %struct.__pthread_mutex_s }
%struct.__pthread_mutex_s = type { i32, i32, i32, i32, i32, i16, i16, %struct.__pthread_internal_list }
%struct.__pthread_internal_list = type { ptr, ptr }
%"class.cv::TLSDataAccumulator" = type <{ %"class.cv::TLSData.base", [4 x i8], %"class.std::recursive_mutex", %"class.std::vector", %"class.std::vector", i8, [7 x i8] }>
%"class.cv::TLSData.base" = type { %"class.cv::TLSDataContainer.base" }
%"class.cv::TLSDataContainer.base" = type <{ ptr, i32 }>
%"class.std::vector" = type { %"struct.std::_Vector_base" }
%"struct.std::_Vector_base" = type { %"struct.std::_Vector_base<cv::utils::trace::details::TraceManagerThreadLocal *, std::allocator<cv::utils::trace::details::TraceManagerThreadLocal *>>::_Vector_impl" }
%"struct.std::_Vector_base<cv::utils::trace::details::TraceManagerThreadLocal *, std::allocator<cv::utils::trace::details::TraceManagerThreadLocal *>>::_Vector_impl" = type { %"struct.std::_Vector_base<cv::utils::trace::details::TraceManagerThreadLocal *, std::allocator<cv::utils::trace::details::TraceManagerThreadLocal *>>::_Vector_impl_data" }
%"struct.std::_Vector_base<cv::utils::trace::details::TraceManagerThreadLocal *, std::allocator<cv::utils::trace::details::TraceManagerThreadLocal *>>::_Vector_impl_data" = type { ptr, ptr, ptr }
%"struct.cv::Ptr" = type { %"class.std::shared_ptr" }
%"class.std::shared_ptr" = type { %"class.std::__shared_ptr" }
%"class.std::__shared_ptr" = type { ptr, %"class.std::__shared_count" }
%"class.std::__shared_count" = type { ptr }
%"struct.cv::utils::trace::details::Region::LocationExtraData" = type { i32, ptr, ptr }
%"struct.cv::utils::trace::details::Region::LocationStaticStorage" = type { ptr, ptr, ptr, i32, i32 }
%"class.std::lock_guard" = type { ptr }
%"class.cv::utils::trace::details::TraceMessage" = type <{ [1024 x i8], i64, i8, [7 x i8] }>

@_ZZN2cv5utils5trace7details15getTraceManagerEvE8instance = internal global ptr null, align 8
@_ZGVZN2cv5utils5trace7details15getTraceManagerEvE8instance = internal global i64 0, align 8
@.str.25 = private unnamed_addr constant [28 x i8] c"l,%lld,\22%s\22,%d,\22%s\22,0x%llX\0A\00", align 1
@_ZN2cv5utils5trace7details6Region17LocationExtraDataC1ERKNS3_21LocationStaticStorageE = unnamed_addr alias void (ptr, ptr), ptr @_ZN2cv5utils5trace7details6Region17LocationExtraDataC2ERKNS3_21LocationStaticStorageE

; Function Attrs: inlinehint mustprogress nounwind uwtable
define internal noundef i32 @_ZL18__gthread_active_pv() #13 {
  ret i32 1
}

; Function Attrs: inlinehint mustprogress nounwind uwtable
define internal noundef i32 @_ZL22__gthread_mutex_unlockP15pthread_mutex_t(ptr noundef %0) #13 {
  %2 = alloca i32, align 4
  %3 = alloca ptr, align 8
  store ptr %0, ptr %3, align 8, !tbaa !17
  %4 = call noundef i32 @_ZL18__gthread_active_pv()
  %5 = icmp ne i32 %4, 0
  br i1 %5, label %6, label %9

6:                                                ; preds = %1
  %7 = load ptr, ptr %3, align 8, !tbaa !17
  %8 = call i32 @pthread_mutex_unlock(ptr noundef %7) #3
  store i32 %8, ptr %2, align 4
  br label %10

9:                                                ; preds = %1
  store i32 0, ptr %2, align 4
  br label %10

10:                                               ; preds = %9, %6
  %11 = load i32, ptr %2, align 4
  ret i32 %11
}

; Function Attrs: inlinehint mustprogress uwtable
define internal noundef i32 @_ZL20__gthread_mutex_lockP15pthread_mutex_t(ptr noundef %0) #12 {
  %2 = alloca i32, align 4
  %3 = alloca ptr, align 8
  store ptr %0, ptr %3, align 8, !tbaa !17
  %4 = call noundef i32 @_ZL18__gthread_active_pv()
  %5 = icmp ne i32 %4, 0
  br i1 %5, label %6, label %9

6:                                                ; preds = %1
  %7 = load ptr, ptr %3, align 8, !tbaa !17
  %8 = call i32 @pthread_mutex_lock(ptr noundef %7) #3
  store i32 %8, ptr %2, align 4
  br label %10

9:                                                ; preds = %1
  store i32 0, ptr %2, align 4
  br label %10

10:                                               ; preds = %9, %6
  %11 = load i32, ptr %2, align 4
  ret i32 %11
}

; Function Attrs: inlinehint mustprogress uwtable
define internal noundef i32 @_ZL32__gthread_recursive_mutex_unlockP15pthread_mutex_t(ptr noundef %0) #12 {
  %2 = alloca ptr, align 8
  store ptr %0, ptr %2, align 8, !tbaa !17
  %3 = load ptr, ptr %2, align 8, !tbaa !17
  %4 = call noundef i32 @_ZL22__gthread_mutex_unlockP15pthread_mutex_t(ptr noundef %3)
  ret i32 %4
}

; Function Attrs: inlinehint mustprogress uwtable
define internal noundef i32 @_ZL30__gthread_recursive_mutex_lockP15pthread_mutex_t(ptr noundef %0) #12 {
  %2 = alloca ptr, align 8
  store ptr %0, ptr %2, align 8, !tbaa !17
  %3 = load ptr, ptr %2, align 8, !tbaa !17
  %4 = call noundef i32 @_ZL20__gthread_mutex_lockP15pthread_mutex_t(ptr noundef %3)
  ret i32 %4
}

; Function Attrs: noinline noreturn nounwind uwtable
define linkonce_odr hidden void @__clang_call_terminate(ptr noundef %0) #10 comdat {
  %2 = call ptr @__cxa_begin_catch(ptr %0) #3
  call void @_ZSt9terminatev() #24
  unreachable
}

; Function Attrs: mustprogress uwtable
define linkonce_odr hidden void @_ZNSt15recursive_mutex6unlockEv(ptr noundef nonnull align 8 dereferenceable(40) %0) #4 comdat align 2 {
  %2 = alloca ptr, align 8
  store ptr %0, ptr %2, align 8, !tbaa !38
  %3 = load ptr, ptr %2, align 8
  %4 = getelementptr inbounds nuw %"class.std::__recursive_mutex_base", ptr %3, i32 0, i32 0
  %5 = call noundef i32 @_ZL32__gthread_recursive_mutex_unlockP15pthread_mutex_t(ptr noundef %4)
  ret void
}

; Function Attrs: mustprogress uwtable
define linkonce_odr hidden void @_ZNSt15recursive_mutex4lockEv(ptr noundef nonnull align 8 dereferenceable(40) %0) #4 comdat align 2 {
  %2 = alloca ptr, align 8
  %3 = alloca i32, align 4
  store ptr %0, ptr %2, align 8, !tbaa !38
  %4 = load ptr, ptr %2, align 8
  call void @llvm.lifetime.start.p0(i64 4, ptr %3) #3
  %5 = getelementptr inbounds nuw %"class.std::__recursive_mutex_base", ptr %4, i32 0, i32 0
  %6 = call noundef i32 @_ZL30__gthread_recursive_mutex_lockP15pthread_mutex_t(ptr noundef %5)
  store i32 %6, ptr %3, align 4, !tbaa !3
  %7 = load i32, ptr %3, align 4, !tbaa !3
  %8 = icmp ne i32 %7, 0
  br i1 %8, label %9, label %11

9:                                                ; preds = %1
  %10 = load i32, ptr %3, align 4, !tbaa !3
  call void @_ZSt20__throw_system_errori(i32 noundef %10) #26
  unreachable

11:                                               ; preds = %1
  call void @llvm.lifetime.end.p0(i64 4, ptr %3) #3
  ret void
}

; Function Attrs: mustprogress nounwind uwtable
define linkonce_odr hidden void @_ZNSt10lock_guardISt15recursive_mutexED2Ev(ptr noundef nonnull align 8 dereferenceable(8) %0) unnamed_addr #8 comdat align 2 personality ptr @__gxx_personality_v0 {
  %2 = alloca ptr, align 8
  store ptr %0, ptr %2, align 8, !tbaa !36
  %3 = load ptr, ptr %2, align 8
  %4 = getelementptr inbounds nuw %"class.std::lock_guard", ptr %3, i32 0, i32 0
  %5 = load ptr, ptr %4, align 8, !tbaa !40
  invoke void @_ZNSt15recursive_mutex6unlockEv(ptr noundef nonnull align 8 dereferenceable(40) %5)
          to label %6 unwind label %7

6:                                                ; preds = %1
  ret void

7:                                                ; preds = %1
  %8 = landingpad { ptr, i32 }
          catch ptr null
  %9 = extractvalue { ptr, i32 } %8, 0
  call void @__clang_call_terminate(ptr %9) #24
  unreachable
}

; Function Attrs: mustprogress uwtable
define linkonce_odr hidden noundef zeroext i1 @_ZN2cv5utils5trace7details12TraceMessage14formatlocationERKNS2_6Region21LocationStaticStorageE(ptr noundef nonnull align 8 dereferenceable(1033) %0, ptr noundef nonnull align 8 dereferenceable(32) %1) #4 comdat align 2 {
  %3 = alloca ptr, align 8
  %4 = alloca ptr, align 8
  store ptr %0, ptr %3, align 8, !tbaa !51
  store ptr %1, ptr %4, align 8, !tbaa !12
  %5 = load ptr, ptr %3, align 8
  %6 = load ptr, ptr %4, align 8, !tbaa !12
  %7 = getelementptr inbounds nuw %"struct.cv::utils::trace::details::Region::LocationStaticStorage", ptr %6, i32 0, i32 0
  %8 = load ptr, ptr %7, align 8, !tbaa !30
  %9 = load ptr, ptr %8, align 8, !tbaa !9
  %10 = getelementptr inbounds nuw %"struct.cv::utils::trace::details::Region::LocationExtraData", ptr %9, i32 0, i32 0
  %11 = load i32, ptr %10, align 8, !tbaa !14
  %12 = sext i32 %11 to i64
  %13 = load ptr, ptr %4, align 8, !tbaa !12
  %14 = getelementptr inbounds nuw %"struct.cv::utils::trace::details::Region::LocationStaticStorage", ptr %13, i32 0, i32 2
  %15 = load ptr, ptr %14, align 8, !tbaa !24
  %16 = load ptr, ptr %4, align 8, !tbaa !12
  %17 = getelementptr inbounds nuw %"struct.cv::utils::trace::details::Region::LocationStaticStorage", ptr %16, i32 0, i32 3
  %18 = load i32, ptr %17, align 8, !tbaa !57
  %19 = load ptr, ptr %4, align 8, !tbaa !12
  %20 = getelementptr inbounds nuw %"struct.cv::utils::trace::details::Region::LocationStaticStorage", ptr %19, i32 0, i32 1
  %21 = load ptr, ptr %20, align 8, !tbaa !18
  %22 = load ptr, ptr %4, align 8, !tbaa !12
  %23 = getelementptr inbounds nuw %"struct.cv::utils::trace::details::Region::LocationStaticStorage", ptr %22, i32 0, i32 4
  %24 = load i32, ptr %23, align 4, !tbaa !58
  %25 = and i32 %24, 268435455
  %26 = zext i32 %25 to i64
  %27 = call noundef zeroext i1 (ptr, ptr, ...) @_ZN2cv5utils5trace7details12TraceMessage6printfEPKcz(ptr noundef nonnull align 8 dereferenceable(1033) %5, ptr noundef @.str.25, i64 noundef %12, ptr noundef %15, i32 noundef %18, ptr noundef %21, i64 noundef %26)
  ret i1 %27
}

; Function Attrs: mustprogress nounwind uwtable
define linkonce_odr hidden void @_ZN2cv5utils5trace7details12TraceMessageC2Ev(ptr noundef nonnull align 8 dereferenceable(1033) %0) unnamed_addr #8 comdat align 2 {
  %2 = alloca ptr, align 8
  store ptr %0, ptr %2, align 8, !tbaa !51
  %3 = load ptr, ptr %2, align 8
  %4 = getelementptr inbounds nuw %"class.cv::utils::trace::details::TraceMessage", ptr %3, i32 0, i32 1
  store i64 0, ptr %4, align 8, !tbaa !53
  %5 = getelementptr inbounds nuw %"class.cv::utils::trace::details::TraceMessage", ptr %3, i32 0, i32 2
  store i8 0, ptr %5, align 8, !tbaa !56
  ret void
}

; Function Attrs: mustprogress nounwind uwtable
define linkonce_odr hidden noundef ptr @_ZNKSt12__shared_ptrIN2cv5utils5trace7details12TraceStorageELN9__gnu_cxx12_Lock_policyE2EE3getEv(ptr noundef nonnull align 8 dereferenceable(16) %0) #8 comdat align 2 {
  %2 = alloca ptr, align 8
  store ptr %0, ptr %2, align 8, !tbaa !45
  %3 = load ptr, ptr %2, align 8
  %4 = getelementptr inbounds nuw %"class.std::__shared_ptr", ptr %3, i32 0, i32 0
  %5 = load ptr, ptr %4, align 8, !tbaa !47
  ret ptr %5
}

; Function Attrs: mustprogress uwtable
define noundef nonnull align 8 dereferenceable(208) ptr @_ZN2cv5utils5trace7details15getTraceManagerEv() #4 personality ptr @__gxx_personality_v0 {
  %1 = alloca ptr, align 8
  %2 = alloca i32, align 4
  %3 = load atomic i8, ptr @_ZGVZN2cv5utils5trace7details15getTraceManagerEvE8instance acquire, align 8
  %4 = icmp eq i8 %3, 0
  br i1 %4, label %5, label %12, !prof !42

5:                                                ; preds = %0
  %6 = call i32 @__cxa_guard_acquire(ptr @_ZGVZN2cv5utils5trace7details15getTraceManagerEvE8instance) #3
  %7 = icmp ne i32 %6, 0
  br i1 %7, label %8, label %12

8:                                                ; preds = %5
  %9 = invoke noundef ptr @_ZN2cv5utils5trace7detailsL23getTraceManagerCallOnceEv()
          to label %10 unwind label %14

10:                                               ; preds = %8
  store ptr %9, ptr @_ZZN2cv5utils5trace7details15getTraceManagerEvE8instance, align 8, !tbaa !43
  %11 = call ptr @llvm.invariant.start.p0(i64 8, ptr @_ZZN2cv5utils5trace7details15getTraceManagerEvE8instance)
  call void @__cxa_guard_release(ptr @_ZGVZN2cv5utils5trace7details15getTraceManagerEvE8instance) #3
  br label %12

12:                                               ; preds = %10, %5, %0
  %13 = load ptr, ptr @_ZZN2cv5utils5trace7details15getTraceManagerEvE8instance, align 8, !tbaa !43
  ret ptr %13

14:                                               ; preds = %8
  %15 = landingpad { ptr, i32 }
          cleanup
  %16 = extractvalue { ptr, i32 } %15, 0
  store ptr %16, ptr %1, align 8
  %17 = extractvalue { ptr, i32 } %15, 1
  store i32 %17, ptr %2, align 4
  call void @__cxa_guard_abort(ptr @_ZGVZN2cv5utils5trace7details15getTraceManagerEvE8instance) #3
  br label %18

18:                                               ; preds = %14
  %19 = load ptr, ptr %1, align 8
  %20 = load i32, ptr %2, align 4
  %21 = insertvalue { ptr, i32 } poison, ptr %19, 0
  %22 = insertvalue { ptr, i32 } %21, i32 %20, 1
  resume { ptr, i32 } %22
}

; Function Attrs: mustprogress uwtable
define linkonce_odr hidden void @_ZNSt10lock_guardISt15recursive_mutexEC2ERS0_(ptr noundef nonnull align 8 dereferenceable(8) %0, ptr noundef nonnull align 8 dereferenceable(40) %1) unnamed_addr #4 comdat align 2 {
  %3 = alloca ptr, align 8
  %4 = alloca ptr, align 8
  store ptr %0, ptr %3, align 8, !tbaa !36
  store ptr %1, ptr %4, align 8, !tbaa !38
  %5 = load ptr, ptr %3, align 8
  %6 = getelementptr inbounds nuw %"class.std::lock_guard", ptr %5, i32 0, i32 0
  %7 = load ptr, ptr %4, align 8, !tbaa !38
  store ptr %7, ptr %6, align 8, !tbaa !38
  %8 = getelementptr inbounds nuw %"class.std::lock_guard", ptr %5, i32 0, i32 0
  %9 = load ptr, ptr %8, align 8, !tbaa !40
  call void @_ZNSt15recursive_mutex4lockEv(ptr noundef nonnull align 8 dereferenceable(40) %9)
  ret void
}

; Function Attrs: mustprogress uwtable
define noundef ptr @_ZN2cv5utils5trace7details6Region17LocationExtraData4initERKNS3_21LocationStaticStorageE(ptr noundef nonnull align 8 dereferenceable(32) %0) #4 align 2 personality ptr @__gxx_personality_v0 {
  %2 = alloca ptr, align 8
  %3 = alloca ptr, align 8
  %4 = alloca %"class.std::lock_guard", align 8
  %5 = alloca ptr, align 8
  %6 = alloca i32, align 4
  %7 = alloca ptr, align 8
  %8 = alloca %"class.cv::utils::trace::details::TraceMessage", align 8
  store ptr %0, ptr %2, align 8, !tbaa !12
  call void @llvm.lifetime.start.p0(i64 8, ptr %3) #3
  %9 = load ptr, ptr %2, align 8, !tbaa !12
  %10 = getelementptr inbounds nuw %"struct.cv::utils::trace::details::Region::LocationStaticStorage", ptr %9, i32 0, i32 0
  %11 = load ptr, ptr %10, align 8, !tbaa !30
  store ptr %11, ptr %3, align 8, !tbaa !31
  %12 = load ptr, ptr %3, align 8, !tbaa !31
  %13 = load ptr, ptr %12, align 8, !tbaa !9
  %14 = icmp eq ptr %13, null
  br i1 %14, label %15, label %63

15:                                               ; preds = %1
  call void @llvm.lifetime.start.p0(i64 8, ptr %4) #3
  %16 = call noundef nonnull align 8 dereferenceable(40) ptr @_ZN2cv22getInitializationMutexEv()
  call void @_ZNSt10lock_guardISt15recursive_mutexEC2ERS0_(ptr noundef nonnull align 8 dereferenceable(8) %4, ptr noundef nonnull align 8 dereferenceable(40) %16)
  %17 = load ptr, ptr %3, align 8, !tbaa !31
  %18 = load ptr, ptr %17, align 8, !tbaa !9
  %19 = icmp eq ptr %18, null
  br i1 %19, label %20, label %61

20:                                               ; preds = %15
  %21 = invoke noalias noundef nonnull ptr @_Znwm(i64 noundef 24) #22
          to label %22 unwind label %43

22:                                               ; preds = %20
  %23 = load ptr, ptr %2, align 8, !tbaa !12
  invoke void @_ZN2cv5utils5trace7details6Region17LocationExtraDataC1ERKNS3_21LocationStaticStorageE(ptr noundef nonnull align 8 dereferenceable(24) %21, ptr noundef nonnull align 8 dereferenceable(32) %23)
          to label %24 unwind label %47

24:                                               ; preds = %22
  %25 = load ptr, ptr %3, align 8, !tbaa !31
  store ptr %21, ptr %25, align 8, !tbaa !9
  call void @llvm.lifetime.start.p0(i64 8, ptr %7) #3
  %26 = invoke noundef nonnull align 8 dereferenceable(208) ptr @_ZN2cv5utils5trace7details15getTraceManagerEv()
          to label %27 unwind label %51

27:                                               ; preds = %24
  %28 = getelementptr inbounds nuw %"class.cv::utils::trace::details::TraceManager", ptr %26, i32 0, i32 3
  %29 = call noundef ptr @_ZNKSt12__shared_ptrIN2cv5utils5trace7details12TraceStorageELN9__gnu_cxx12_Lock_policyE2EE3getEv(ptr noundef nonnull align 8 dereferenceable(16) %28) #3
  store ptr %29, ptr %7, align 8, !tbaa !32
  %30 = load ptr, ptr %7, align 8, !tbaa !32
  %31 = icmp ne ptr %30, null
  br i1 %31, label %32, label %59

32:                                               ; preds = %27
  call void @llvm.lifetime.start.p0(i64 1040, ptr %8) #3
  invoke void @_ZN2cv5utils5trace7details12TraceMessageC2Ev(ptr noundef nonnull align 8 dereferenceable(1033) %8)
          to label %33 unwind label %55

33:                                               ; preds = %32
  %34 = load ptr, ptr %2, align 8, !tbaa !12
  %35 = invoke noundef zeroext i1 @_ZN2cv5utils5trace7details12TraceMessage14formatlocationERKNS2_6Region21LocationStaticStorageE(ptr noundef nonnull align 8 dereferenceable(1033) %8, ptr noundef nonnull align 8 dereferenceable(32) %34)
          to label %36 unwind label %55

36:                                               ; preds = %33
  %37 = load ptr, ptr %7, align 8, !tbaa !32
  %38 = load ptr, ptr %37, align 8, !tbaa !34
  %39 = getelementptr inbounds ptr, ptr %38, i64 2
  %40 = load ptr, ptr %39, align 8
  %41 = invoke noundef zeroext i1 %40(ptr noundef nonnull align 8 dereferenceable(8) %37, ptr noundef nonnull align 8 dereferenceable(1033) %8)
          to label %42 unwind label %55

42:                                               ; preds = %36
  call void @llvm.lifetime.end.p0(i64 1040, ptr %8) #3
  br label %59

43:                                               ; preds = %20
  %44 = landingpad { ptr, i32 }
          cleanup
  %45 = extractvalue { ptr, i32 } %44, 0
  store ptr %45, ptr %5, align 8
  %46 = extractvalue { ptr, i32 } %44, 1
  store i32 %46, ptr %6, align 4
  br label %62

47:                                               ; preds = %22
  %48 = landingpad { ptr, i32 }
          cleanup
  %49 = extractvalue { ptr, i32 } %48, 0
  store ptr %49, ptr %5, align 8
  %50 = extractvalue { ptr, i32 } %48, 1
  store i32 %50, ptr %6, align 4
  call void @_ZdlPv(ptr noundef %21) #23
  br label %62

51:                                               ; preds = %24
  %52 = landingpad { ptr, i32 }
          cleanup
  %53 = extractvalue { ptr, i32 } %52, 0
  store ptr %53, ptr %5, align 8
  %54 = extractvalue { ptr, i32 } %52, 1
  store i32 %54, ptr %6, align 4
  br label %60

55:                                               ; preds = %36, %33, %32
  %56 = landingpad { ptr, i32 }
          cleanup
  %57 = extractvalue { ptr, i32 } %56, 0
  store ptr %57, ptr %5, align 8
  %58 = extractvalue { ptr, i32 } %56, 1
  store i32 %58, ptr %6, align 4
  call void @llvm.lifetime.end.p0(i64 1040, ptr %8) #3
  br label %60

59:                                               ; preds = %42, %27
  call void @llvm.lifetime.end.p0(i64 8, ptr %7) #3
  br label %61

60:                                               ; preds = %55, %51
  call void @llvm.lifetime.end.p0(i64 8, ptr %7) #3
  br label %62

61:                                               ; preds = %59, %15
  call void @_ZNSt10lock_guardISt15recursive_mutexED2Ev(ptr noundef nonnull align 8 dereferenceable(8) %4) #3
  call void @llvm.lifetime.end.p0(i64 8, ptr %4) #3
  br label %63

62:                                               ; preds = %60, %47, %43
  call void @_ZNSt10lock_guardISt15recursive_mutexED2Ev(ptr noundef nonnull align 8 dereferenceable(8) %4) #3
  call void @llvm.lifetime.end.p0(i64 8, ptr %4) #3
  call void @llvm.lifetime.end.p0(i64 8, ptr %3) #3
  br label %66

63:                                               ; preds = %61, %1
  %64 = load ptr, ptr %3, align 8, !tbaa !31
  %65 = load ptr, ptr %64, align 8, !tbaa !9
  call void @llvm.lifetime.end.p0(i64 8, ptr %3) #3
  ret ptr %65

66:                                               ; preds = %62
  %67 = load ptr, ptr %5, align 8
  %68 = load i32, ptr %6, align 4
  %69 = insertvalue { ptr, i32 } poison, ptr %67, 0
  %70 = insertvalue { ptr, i32 } %69, i32 %68, 1
  resume { ptr, i32 } %70
}