; Function Attrs: mustprogress uwtable
define noundef ptr @_ZN2cv5utils5trace7details6Region17LocationExtraData4initERKNS3_21LocationStaticStorageE(ptr noundef nonnull align 8 dereferenceable(32) %0) local_unnamed_addr #3 align 2 personality ptr @__gxx_personality_v0 {
  %2 = alloca %"class.cv::utils::trace::details::TraceMessage", align 8
  %3 = load ptr, ptr %0, align 8, !tbaa !25
  %4 = load ptr, ptr %3, align 8, !tbaa !26
  %5 = icmp eq ptr %4, null
  br i1 %5, label %6, label %61

6:                                                ; preds = %1
  %7 = tail call noundef nonnull align 8 dereferenceable(40) ptr @_ZN2cv22getInitializationMutexEv()
  %8 = tail call noundef i32 @pthread_mutex_lock(ptr noundef nonnull align 8 dereferenceable(40) %7) #24
  %.not.i.i = icmp eq i32 %8, 0
  br i1 %.not.i.i, label %_ZNSt10lock_guardISt15recursive_mutexEC2ERS0_.exit, label %9

9:                                                ; preds = %6
  tail call void @_ZSt20__throw_system_errori(i32 noundef %8) #25
  unreachable

_ZNSt10lock_guardISt15recursive_mutexEC2ERS0_.exit: ; preds = %6
  %10 = load ptr, ptr %3, align 8, !tbaa !26
  %11 = icmp eq ptr %10, null
  br i1 %11, label %12, label %58

12:                                               ; preds = %_ZNSt10lock_guardISt15recursive_mutexEC2ERS0_.exit
  %13 = invoke noalias noundef nonnull dereferenceable(24) ptr @_Znwm(i64 noundef 24) #26
          to label %14 unwind label %52

14:                                               ; preds = %12
  invoke void @_ZN2cv5utils5trace7details6Region17LocationExtraDataC1ERKNS3_21LocationStaticStorageE(ptr noundef nonnull align 8 dereferenceable(24) %13, ptr noundef nonnull align 8 dereferenceable(32) %0)
          to label %15 unwind label %54

15:                                               ; preds = %14
  store ptr %13, ptr %3, align 8, !tbaa !26
  %16 = load atomic i8, ptr @_ZGVZN2cv5utils5trace7details15getTraceManagerEvE8instance acquire, align 8
  %17 = icmp eq i8 %16, 0
  br i1 %17, label %18, label %25, !prof !28

18:                                               ; preds = %15
  %19 = tail call i32 @__cxa_guard_acquire(ptr nonnull @_ZGVZN2cv5utils5trace7details15getTraceManagerEvE8instance) #24
  %.not.i = icmp eq i32 %19, 0
  br i1 %.not.i, label %25, label %20

20:                                               ; preds = %18
  invoke fastcc void @_ZN2cv5utils5trace7detailsL23getTraceManagerCallOnceEv()
          to label %21 unwind label %23

21:                                               ; preds = %20
  store ptr @_ZZN2cv5utils5trace7detailsL23getTraceManagerCallOnceEvE14globalInstance, ptr @_ZZN2cv5utils5trace7details15getTraceManagerEvE8instance, align 8, !tbaa !29
  %22 = tail call ptr @llvm.invariant.start.p0(i64 8, ptr nonnull @_ZZN2cv5utils5trace7details15getTraceManagerEvE8instance)
  tail call void @__cxa_guard_release(ptr nonnull @_ZGVZN2cv5utils5trace7details15getTraceManagerEvE8instance) #24
  br label %25

23:                                               ; preds = %20
  %24 = landingpad { ptr, i32 }
          cleanup
  tail call void @__cxa_guard_abort(ptr nonnull @_ZGVZN2cv5utils5trace7details15getTraceManagerEvE8instance) #24
  br label %.body

25:                                               ; preds = %21, %18, %15
  %26 = load ptr, ptr @_ZZN2cv5utils5trace7details15getTraceManagerEvE8instance, align 8, !tbaa !29
  %27 = getelementptr inbounds nuw i8, ptr %26, i64 192
  %28 = load ptr, ptr %27, align 8, !tbaa !31
  %.not = icmp eq ptr %28, null
  br i1 %.not, label %58, label %29

29:                                               ; preds = %25
  call void @llvm.lifetime.start.p0(i64 1040, ptr nonnull %2) #24
  %30 = getelementptr inbounds nuw i8, ptr %2, i64 1024
  store i64 0, ptr %30, align 8, !tbaa !36
  %31 = getelementptr inbounds nuw i8, ptr %2, i64 1032
  store i8 0, ptr %31, align 8, !tbaa !39
  %32 = load ptr, ptr %0, align 8, !tbaa !25
  %33 = load ptr, ptr %32, align 8, !tbaa !26
  %34 = load i32, ptr %33, align 8, !tbaa !3
  %35 = sext i32 %34 to i64
  %36 = getelementptr inbounds nuw i8, ptr %0, i64 16
  %37 = load ptr, ptr %36, align 8, !tbaa !17
  %38 = getelementptr inbounds nuw i8, ptr %0, i64 24
  %39 = load i32, ptr %38, align 8, !tbaa !40
  %40 = getelementptr inbounds nuw i8, ptr %0, i64 8
  %41 = load ptr, ptr %40, align 8, !tbaa !12
  %42 = getelementptr inbounds nuw i8, ptr %0, i64 28
  %43 = load i32, ptr %42, align 4, !tbaa !41
  %44 = and i32 %43, 268435455
  %45 = zext nneg i32 %44 to i64
  %46 = invoke noundef zeroext i1 (ptr, ptr, ...) @_ZN2cv5utils5trace7details12TraceMessage6printfEPKcz(ptr noundef nonnull align 8 dereferenceable(1033) %2, ptr noundef nonnull @.str.25, i64 noundef %35, ptr noundef %37, i32 noundef %39, ptr noundef %41, i64 noundef %45)
          to label %_ZN2cv5utils5trace7details12TraceMessage14formatlocationERKNS2_6Region21LocationStaticStorageE.exit unwind label %56

_ZN2cv5utils5trace7details12TraceMessage14formatlocationERKNS2_6Region21LocationStaticStorageE.exit: ; preds = %29
  %47 = load ptr, ptr %28, align 8, !tbaa !42
  %48 = getelementptr inbounds nuw i8, ptr %47, i64 16
  %49 = load ptr, ptr %48, align 8
  %50 = invoke noundef zeroext i1 %49(ptr noundef nonnull align 8 dereferenceable(8) %28, ptr noundef nonnull align 8 dereferenceable(1033) %2)
          to label %51 unwind label %56

51:                                               ; preds = %_ZN2cv5utils5trace7details12TraceMessage14formatlocationERKNS2_6Region21LocationStaticStorageE.exit
  call void @llvm.lifetime.end.p0(i64 1040, ptr nonnull %2) #24
  br label %58

52:                                               ; preds = %12
  %53 = landingpad { ptr, i32 }
          cleanup
  br label %.body

54:                                               ; preds = %14
  %55 = landingpad { ptr, i32 }
          cleanup
  tail call void @_ZdlPv(ptr noundef nonnull %13) #27
  br label %.body

56:                                               ; preds = %29, %_ZN2cv5utils5trace7details12TraceMessage14formatlocationERKNS2_6Region21LocationStaticStorageE.exit
  %57 = landingpad { ptr, i32 }
          cleanup
  call void @llvm.lifetime.end.p0(i64 1040, ptr nonnull %2) #24
  br label %.body

58:                                               ; preds = %25, %51, %_ZNSt10lock_guardISt15recursive_mutexEC2ERS0_.exit
  %59 = call noundef i32 @pthread_mutex_unlock(ptr noundef nonnull align 8 dereferenceable(40) %7) #24
  %.pre = load ptr, ptr %3, align 8, !tbaa !26
  br label %61

.body:                                            ; preds = %23, %56, %54, %52
  %.pn.pn = phi { ptr, i32 } [ %55, %54 ], [ %53, %52 ], [ %57, %56 ], [ %24, %23 ]
  %60 = call noundef i32 @pthread_mutex_unlock(ptr noundef nonnull align 8 dereferenceable(40) %7) #24
  resume { ptr, i32 } %.pn.pn

61:                                               ; preds = %58, %1
  %62 = phi ptr [ %.pre, %58 ], [ %4, %1 ]
  ret ptr %62
}